(dp0
S'doctor_request'
p1
(dp2
S'rname'
p3
S'"Doctor_Request"'
p4
sS'sortable'
p5
I7
sS'raw_rname'
p6
S'Doctor_Request'
p7
sS'notnull'
p8
I00
sS'length'
p9
I512
sS'sql'
p10
S'CHAR(1)'
p11
sS'unique'
p12
I00
sS'type'
p13
S'boolean'
p14
ssS'doctor_emailid'
p15
(dp16
g3
S'"Doctor_emailid"'
p17
sg5
I2
sg6
S'Doctor_emailid'
p18
sg8
I00
sg9
I512
sg10
S'CHAR(512)'
p19
sg12
I00
sg13
S'string'
p20
ssS'f'
p21
(dp22
S'rname'
p23
S'"f"'
p24
sS'sortable'
p25
I5
sS'raw_rname'
p26
S'f'
p27
sS'notnull'
p28
I00
sS'length'
p29
I512
sS'sql'
p30
S'CHAR(512)'
p31
sS'unique'
p32
I00
sS'type'
p33
S'string'
p34
ssS'permission'
p35
(dp36
g23
S'"permission"'
p37
sg25
I4
sg26
S'permission'
p38
sg28
I00
sg29
I512
sg30
S'CHAR(1)'
p39
sg32
I00
sg33
S'boolean'
p40
ssS'patient_permit'
p41
(dp42
g3
S'"Patient_Permit"'
p43
sg5
I8
sg6
S'Patient_Permit'
p44
sg8
I00
sg9
I512
sg10
S'CHAR(1)'
p45
sg12
I00
sg13
g14
ssS'doctor_name'
p46
(dp47
g3
S'"Doctor_name"'
p48
sg5
I4
sg6
S'Doctor_name'
p49
sg8
I00
sg9
I512
sg10
S'CHAR(512)'
p50
sg12
I00
sg13
g20
ssS'patient_name'
p51
(dp52
g3
S'"Patient_name"'
p53
sg5
I6
sg6
S'Patient_name'
p54
sg8
I00
sg9
I512
sg10
S'CHAR(512)'
p55
sg12
I00
sg13
g20
ssS'specialisation'
p56
(dp57
g3
S'"specialisation"'
p58
sg5
I5
sg6
S'specialisation'
p59
sg8
I00
sg9
I512
sg10
S'CHAR(512)'
p60
sg12
I00
sg13
g20
ssS'doctor_id'
p61
(dp62
S'rname'
p63
S'"Doctor_id"'
p64
sS'sortable'
p65
I2
sS'raw_rname'
p66
S'Doctor_id'
p67
sS'notnull'
p68
I00
sS'length'
p69
I512
sS'sql'
p70
S'CHAR(512)'
p71
sS'unique'
p72
I00
sS'type'
p73
S'string'
p74
ssS'patient_id'
p75
(dp76
g63
S'"Patient_id"'
p77
sg65
I3
sg66
S'Patient_id'
p78
sg68
I00
sg69
I512
sg70
S'CHAR(512)'
p79
sg72
I00
sg73
g74
ssS'id'
p80
(dp81
g3
S'"id"'
p82
sg5
I1
sg6
S'id'
p83
sg8
I00
sg9
I512
sg10
S'INTEGER PRIMARY KEY AUTOINCREMENT'
p84
sg12
I00
sg13
g83
ssS'patient_emailid'
p85
(dp86
g3
S'"Patient_emailid"'
p87
sg5
I3
sg6
S'Patient_emailid'
p88
sg8
I00
sg9
I512
sg10
S'CHAR(512)'
p89
sg12
I00
sg13
g20
ss.