(dp0
S'contact'
p1
(dp2
S'rname'
p3
S'"contact"'
p4
sS'sortable'
p5
I4
sS'raw_rname'
p6
S'contact'
p7
sS'notnull'
p8
I00
sS'length'
p9
I512
sS'sql'
p10
S'CHAR(512)'
p11
sS'unique'
p12
I00
sS'type'
p13
S'string'
p14
ssS'name'
p15
(dp16
g3
S'"name"'
p17
sg5
I3
sg6
S'name'
p18
sg8
I00
sg9
I512
sg10
S'CHAR(512)'
p19
sg12
I00
sg13
g14
ssS'address'
p20
(dp21
g3
S'"Address"'
p22
sg5
I5
sg6
S'Address'
p23
sg8
I00
sg9
I512
sg10
S'CHAR(512)'
p24
sg12
I00
sg13
g14
ssS'pharma_id'
p25
(dp26
S'rname'
p27
S'"Pharma_id"'
p28
sS'sortable'
p29
I2
sS'raw_rname'
p30
S'Pharma_id'
p31
sS'notnull'
p32
I00
sS'length'
p33
I512
sS'sql'
p34
S'CHAR(512)'
p35
sS'unique'
p36
I00
sS'type'
p37
S'string'
p38
ssS'id'
p39
(dp40
g3
S'"id"'
p41
sg5
I1
sg6
S'id'
p42
sg8
I00
sg9
I512
sg10
S'INTEGER PRIMARY KEY AUTOINCREMENT'
p43
sg12
I00
sg13
g42
ssS'pharma_emailid'
p44
(dp45
g3
S'"Pharma_emailid"'
p46
sg5
I2
sg6
S'Pharma_emailid'
p47
sg8
I00
sg9
I512
sg10
S'CHAR(512)'
p48
sg12
I00
sg13
g14
ss.