(dp0
S'Pharma_Request'
p1
(dp2
S'rname'
p3
S'"Pharma_Request"'
p4
sS'sortable'
p5
I6
sS'raw_rname'
p6
g1
sS'notnull'
p7
I00
sS'length'
p8
I512
sS'sql'
p9
S'CHAR(1)'
p10
sS'unique'
p11
I00
sS'type'
p12
S'boolean'
p13
ssS'Patient_name'
p14
(dp15
g3
S'"Patient_name"'
p16
sg5
I5
sg6
g14
sg7
I00
sg8
I512
sg9
S'CHAR(512)'
p17
sg11
I00
sg12
S'string'
p18
ssS'Patient_Permit'
p19
(dp20
g3
S'"Patient_Permit"'
p21
sg5
I7
sg6
g19
sg7
I00
sg8
I512
sg9
S'CHAR(1)'
p22
sg11
I00
sg12
g13
ssS'Pharmacist_name'
p23
(dp24
g3
S'"Pharmacist_name"'
p25
sg5
I4
sg6
g23
sg7
I00
sg8
I512
sg9
S'CHAR(512)'
p26
sg11
I00
sg12
g18
ssS'id'
p27
(dp28
g3
S'"id"'
p29
sg5
I1
sg6
g27
sg7
I00
sg8
I512
sg9
S'INTEGER PRIMARY KEY AUTOINCREMENT'
p30
sg11
I00
sg12
g27
ssS'Patient_emailid'
p31
(dp32
g3
S'"Patient_emailid"'
p33
sg5
I3
sg6
g31
sg7
I00
sg8
I512
sg9
S'CHAR(512)'
p34
sg11
I00
sg12
g18
ssS'Pharma_emailid'
p35
(dp36
g3
S'"Pharma_emailid"'
p37
sg5
I2
sg6
g35
sg7
I00
sg8
I512
sg9
S'CHAR(512)'
p38
sg11
I00
sg12
g18
ss.