(dp0
S'specialisation'
p1
(dp2
S'rname'
p3
S'"specialisation"'
p4
sS'sortable'
p5
I6
sS'raw_rname'
p6
S'specialisation'
p7
sS'notnull'
p8
I00
sS'length'
p9
I512
sS'sql'
p10
S'CHAR(512)'
p11
sS'unique'
p12
I00
sS'type'
p13
S'string'
p14
ssS'doctoremail_id'
p15
(dp16
g3
S'"Doctoremail_id"'
p17
sg5
I2
sg6
S'Doctoremail_id'
p18
sg8
I00
sg9
I512
sg10
S'CHAR(512)'
p19
sg12
I00
sg13
g14
ssS'name'
p20
(dp21
g3
S'"name"'
p22
sg5
I3
sg6
S'name'
p23
sg8
I00
sg9
I512
sg10
S'CHAR(512)'
p24
sg12
I00
sg13
g14
ssS'address'
p25
(dp26
g3
S'"Address"'
p27
sg5
I5
sg6
S'Address'
p28
sg8
I00
sg9
I512
sg10
S'CHAR(512)'
p29
sg12
I00
sg13
g14
ssS'doctor_id'
p30
(dp31
S'rname'
p32
S'"Doctor_id"'
p33
sS'sortable'
p34
I2
sS'raw_rname'
p35
S'Doctor_id'
p36
sS'notnull'
p37
I00
sS'length'
p38
I512
sS'sql'
p39
S'CHAR(512)'
p40
sS'unique'
p41
I00
sS'type'
p42
S'string'
p43
ssS'id'
p44
(dp45
g3
S'"id"'
p46
sg5
I1
sg6
S'id'
p47
sg8
I00
sg9
I512
sg10
S'INTEGER PRIMARY KEY AUTOINCREMENT'
p48
sg12
I00
sg13
g47
ssS'contact'
p49
(dp50
g3
S'"contact"'
p51
sg5
I4
sg6
S'contact'
p52
sg8
I00
sg9
I512
sg10
S'CHAR(512)'
p53
sg12
I00
sg13
g14
ss.