(dp0
S'contact'
p1
(dp2
S'rname'
p3
S'"Contact"'
p4
sS'sortable'
p5
I4
sS'raw_rname'
p6
S'Contact'
p7
sS'notnull'
p8
I00
sS'length'
p9
I512
sS'sql'
p10
S'CHAR(512)'
p11
sS'unique'
p12
I00
sS'type'
p13
S'string'
p14
ssS'prescription'
p15
(dp16
g3
S'"Prescription"'
p17
sg5
I6
sg6
S'Prescription'
p18
sg8
I00
sg9
I512
sg10
S'CHAR(512)'
p19
sg12
I00
sg13
S'upload'
p20
ssS'name'
p21
(dp22
g3
S'"name"'
p23
sg5
I3
sg6
S'name'
p24
sg8
I00
sg9
I512
sg10
S'CHAR(512)'
p25
sg12
I00
sg13
g14
ssS'patient_emailid'
p26
(dp27
g3
S'"Patient_emailid"'
p28
sg5
I2
sg6
S'Patient_emailid'
p29
sg8
I00
sg9
I512
sg10
S'CHAR(512)'
p30
sg12
I00
sg13
g14
ssS'id'
p31
(dp32
g3
S'"id"'
p33
sg5
I1
sg6
S'id'
p34
sg8
I00
sg9
I512
sg10
S'INTEGER PRIMARY KEY AUTOINCREMENT'
p35
sg12
I00
sg13
g34
ssS'medicalhistory'
p36
(dp37
g3
S'"MedicalHistory"'
p38
sg5
I5
sg6
S'MedicalHistory'
p39
sg8
I00
sg9
I512
sg10
S'CHAR(512)'
p40
sg12
I00
sg13
g14
ssS'patient_id'
p41
(dp42
S'rname'
p43
S'"Patient_id"'
p44
sS'sortable'
p45
I2
sS'raw_rname'
p46
S'Patient_id'
p47
sS'notnull'
p48
I00
sS'length'
p49
I512
sS'sql'
p50
S'CHAR(512) UNIQUE'
p51
sS'unique'
p52
I01
sS'type'
p53
S'string'
p54
ss.